target datalayout = "e-m:e-p270:32:32-p271:32:32-p272:64:64-i64:64-i128:128-f80:128-n8:16:32:64-S128"
target triple = "x86_64-pc-linux-gnu"

%struct.padlock_cipher_data = type { [16 x i8], %union.anon, %struct.aes_key_st }
%union.anon = type { [4 x i32] }
%struct.aes_key_st = type { [60 x i32], i32 }

; Function Attrs: nounwind uwtable
define internal i32 @padlock_cfb_cipher(ptr noundef %0, ptr noundef %1, ptr noundef %2, i64 noundef %3) #0 {
  %5 = alloca i32, align 4
  %6 = alloca ptr, align 8
  %7 = alloca ptr, align 8
  %8 = alloca ptr, align 8
  %9 = alloca i64, align 8
  %10 = alloca ptr, align 8
  %11 = alloca i64, align 8
  %12 = alloca ptr, align 8
  %13 = alloca i32, align 4
  %14 = alloca i8, align 1
  %15 = alloca ptr, align 8
  %16 = alloca i8, align 1
  store ptr %0, ptr %6, align 8, !tbaa !30
  store ptr %1, ptr %7, align 8, !tbaa !10
  store ptr %2, ptr %8, align 8, !tbaa !10
  store i64 %3, ptr %9, align 8, !tbaa !3
  call void @llvm.lifetime.start.p0(i64 8, ptr %10) #7
  %17 = load ptr, ptr %6, align 8, !tbaa !30
  %18 = call ptr @EVP_CIPHER_CTX_get_cipher_data(ptr noundef %17)
  %19 = load ptr, ptr %6, align 8, !tbaa !30
  %20 = call ptr @EVP_CIPHER_CTX_get_cipher_data(ptr noundef %19)
  %21 = ptrtoint ptr %20 to i64
  %22 = and i64 %21, 15
  %23 = sub i64 16, %22
  %24 = and i64 %23, 15
  %25 = getelementptr inbounds nuw i8, ptr %18, i64 %24
  store ptr %25, ptr %10, align 8, !tbaa !32
  call void @llvm.lifetime.start.p0(i64 8, ptr %11) #7
  %26 = load ptr, ptr %6, align 8, !tbaa !30
  %27 = call i32 @EVP_CIPHER_CTX_get_num(ptr noundef %26)
  %28 = sext i32 %27 to i64
  store i64 %28, ptr %11, align 8, !tbaa !3
  %29 = icmp ne i64 %28, 0
  br i1 %29, label %30, label %112

30:                                               ; preds = %4
  call void @llvm.lifetime.start.p0(i64 8, ptr %12) #7
  %31 = load ptr, ptr %6, align 8, !tbaa !30
  %32 = call ptr @EVP_CIPHER_CTX_iv_noconst(ptr noundef %31)
  store ptr %32, ptr %12, align 8, !tbaa !10
  %33 = load i64, ptr %11, align 8, !tbaa !3
  %34 = icmp uge i64 %33, 16
  br i1 %34, label %35, label %36

35:                                               ; preds = %30
  store i32 0, ptr %5, align 4
  store i32 1, ptr %13, align 4
  br label %109

36:                                               ; preds = %30
  %37 = load ptr, ptr %6, align 8, !tbaa !30
  %38 = call i32 @EVP_CIPHER_CTX_is_encrypting(ptr noundef %37)
  %39 = icmp ne i32 %38, 0
  br i1 %39, label %40, label %71

40:                                               ; preds = %36
  br label %41

41:                                               ; preds = %49, %40
  %42 = load i64, ptr %11, align 8, !tbaa !3
  %43 = icmp ult i64 %42, 16
  br i1 %43, label %44, label %47

44:                                               ; preds = %41
  %45 = load i64, ptr %9, align 8, !tbaa !3
  %46 = icmp ne i64 %45, 0
  br label %47

47:                                               ; preds = %44, %41
  %48 = phi i1 [ false, %41 ], [ %46, %44 ]
  br i1 %48, label %49, label %70

49:                                               ; preds = %47
  %50 = load ptr, ptr %8, align 8, !tbaa !10
  %51 = getelementptr inbounds nuw i8, ptr %50, i32 1
  store ptr %51, ptr %8, align 8, !tbaa !10
  %52 = load i8, ptr %50, align 1, !tbaa !42
  %53 = zext i8 %52 to i32
  %54 = load ptr, ptr %12, align 8, !tbaa !10
  %55 = load i64, ptr %11, align 8, !tbaa !3
  %56 = getelementptr inbounds nuw i8, ptr %54, i64 %55
  %57 = load i8, ptr %56, align 1, !tbaa !42
  %58 = zext i8 %57 to i32
  %59 = xor i32 %53, %58
  %60 = trunc i32 %59 to i8
  %61 = load ptr, ptr %7, align 8, !tbaa !10
  %62 = getelementptr inbounds nuw i8, ptr %61, i32 1
  store ptr %62, ptr %7, align 8, !tbaa !10
  store i8 %60, ptr %61, align 1, !tbaa !42
  %63 = load ptr, ptr %12, align 8, !tbaa !10
  %64 = load i64, ptr %11, align 8, !tbaa !3
  %65 = getelementptr inbounds nuw i8, ptr %63, i64 %64
  store i8 %60, ptr %65, align 1, !tbaa !42
  %66 = load i64, ptr %11, align 8, !tbaa !3
  %67 = add i64 %66, 1
  store i64 %67, ptr %11, align 8, !tbaa !3
  %68 = load i64, ptr %9, align 8, !tbaa !3
  %69 = add i64 %68, -1
  store i64 %69, ptr %9, align 8, !tbaa !3
  br label %41, !llvm.loop !43

70:                                               ; preds = %47
  br label %103

71:                                               ; preds = %36
  br label %72

72:                                               ; preds = %80, %71
  %73 = load i64, ptr %11, align 8, !tbaa !3
  %74 = icmp ult i64 %73, 16
  br i1 %74, label %75, label %78

75:                                               ; preds = %72
  %76 = load i64, ptr %9, align 8, !tbaa !3
  %77 = icmp ne i64 %76, 0
  br label %78

78:                                               ; preds = %75, %72
  %79 = phi i1 [ false, %72 ], [ %77, %75 ]
  br i1 %79, label %80, label %102

80:                                               ; preds = %78
  call void @llvm.lifetime.start.p0(i64 1, ptr %14) #7
  %81 = load ptr, ptr %8, align 8, !tbaa !10
  %82 = getelementptr inbounds nuw i8, ptr %81, i32 1
  store ptr %82, ptr %8, align 8, !tbaa !10
  %83 = load i8, ptr %81, align 1, !tbaa !42
  store i8 %83, ptr %14, align 1, !tbaa !42
  %84 = load i8, ptr %14, align 1, !tbaa !42
  %85 = zext i8 %84 to i32
  %86 = load ptr, ptr %12, align 8, !tbaa !10
  %87 = load i64, ptr %11, align 8, !tbaa !3
  %88 = getelementptr inbounds nuw i8, ptr %86, i64 %87
  %89 = load i8, ptr %88, align 1, !tbaa !42
  %90 = zext i8 %89 to i32
  %91 = xor i32 %85, %90
  %92 = trunc i32 %91 to i8
  %93 = load ptr, ptr %7, align 8, !tbaa !10
  %94 = getelementptr inbounds nuw i8, ptr %93, i32 1
  store ptr %94, ptr %7, align 8, !tbaa !10
  store i8 %92, ptr %93, align 1, !tbaa !42
  %95 = load i8, ptr %14, align 1, !tbaa !42
  %96 = load ptr, ptr %12, align 8, !tbaa !10
  %97 = load i64, ptr %11, align 8, !tbaa !3
  %98 = add i64 %97, 1
  store i64 %98, ptr %11, align 8, !tbaa !3
  %99 = getelementptr inbounds nuw i8, ptr %96, i64 %97
  store i8 %95, ptr %99, align 1, !tbaa !42
  %100 = load i64, ptr %9, align 8, !tbaa !3
  %101 = add i64 %100, -1
  store i64 %101, ptr %9, align 8, !tbaa !3
  call void @llvm.lifetime.end.p0(i64 1, ptr %14) #7
  br label %72, !llvm.loop !44

102:                                              ; preds = %78
  br label %103

103:                                              ; preds = %102, %70
  %104 = load ptr, ptr %6, align 8, !tbaa !30
  %105 = load i64, ptr %11, align 8, !tbaa !3
  %106 = urem i64 %105, 16
  %107 = trunc i64 %106 to i32
  %108 = call i32 @EVP_CIPHER_CTX_set_num(ptr noundef %104, i32 noundef %107)
  store i32 0, ptr %13, align 4
  br label %109

109:                                              ; preds = %103, %35
  call void @llvm.lifetime.end.p0(i64 8, ptr %12) #7
  %110 = load i32, ptr %13, align 4
  switch i32 %110, label %229 [
    i32 0, label %111
  ]

111:                                              ; preds = %109
  br label %112

112:                                              ; preds = %111, %4
  %113 = load i64, ptr %9, align 8, !tbaa !3
  %114 = icmp eq i64 %113, 0
  br i1 %114, label %115, label %116

115:                                              ; preds = %112
  store i32 1, ptr %5, align 4
  store i32 1, ptr %13, align 4
  br label %229

116:                                              ; preds = %112
  %117 = load ptr, ptr %10, align 8, !tbaa !32
  %118 = getelementptr inbounds nuw %struct.padlock_cipher_data, ptr %117, i32 0, i32 0
  %119 = getelementptr inbounds [16 x i8], ptr %118, i64 0, i64 0
  %120 = load ptr, ptr %6, align 8, !tbaa !30
  %121 = call ptr @EVP_CIPHER_CTX_iv(ptr noundef %120)
  call void @llvm.memcpy.p0.p0.i64(ptr align 4 %119, ptr align 1 %121, i64 16, i1 false)
  %122 = load i64, ptr %9, align 8, !tbaa !3
  %123 = and i64 %122, -16
  store i64 %123, ptr %11, align 8, !tbaa !3
  %124 = icmp ne i64 %123, 0
  br i1 %124, label %125, label %137

125:                                              ; preds = %116
  %126 = load ptr, ptr %7, align 8, !tbaa !10
  %127 = load ptr, ptr %8, align 8, !tbaa !10
  %128 = load ptr, ptr %10, align 8, !tbaa !32
  %129 = load i64, ptr %11, align 8, !tbaa !3
  %130 = call i32 @padlock_cfb_encrypt(ptr noundef %126, ptr noundef %127, ptr noundef %128, i64 noundef %129)
  %131 = icmp ne i32 %130, 0
  br i1 %131, label %133, label %132

132:                                              ; preds = %125
  store i32 0, ptr %5, align 4
  store i32 1, ptr %13, align 4
  br label %229

133:                                              ; preds = %125
  %134 = load i64, ptr %11, align 8, !tbaa !3
  %135 = load i64, ptr %9, align 8, !tbaa !3
  %136 = sub i64 %135, %134
  store i64 %136, ptr %9, align 8, !tbaa !3
  br label %137

137:                                              ; preds = %133, %116
  %138 = load i64, ptr %9, align 8, !tbaa !3
  %139 = icmp ne i64 %138, 0
  br i1 %139, label %140, label %223

140:                                              ; preds = %137
  call void @llvm.lifetime.start.p0(i64 8, ptr %15) #7
  %141 = load ptr, ptr %10, align 8, !tbaa !32
  %142 = getelementptr inbounds nuw %struct.padlock_cipher_data, ptr %141, i32 0, i32 0
  %143 = getelementptr inbounds [16 x i8], ptr %142, i64 0, i64 0
  store ptr %143, ptr %15, align 8, !tbaa !10
  %144 = load i64, ptr %11, align 8, !tbaa !3
  %145 = load ptr, ptr %7, align 8, !tbaa !10
  %146 = getelementptr inbounds nuw i8, ptr %145, i64 %144
  store ptr %146, ptr %7, align 8, !tbaa !10
  %147 = load i64, ptr %11, align 8, !tbaa !3
  %148 = load ptr, ptr %8, align 8, !tbaa !10
  %149 = getelementptr inbounds nuw i8, ptr %148, i64 %147
  store ptr %149, ptr %8, align 8, !tbaa !10
  %150 = load ptr, ptr %6, align 8, !tbaa !30
  %151 = load i64, ptr %9, align 8, !tbaa !3
  %152 = trunc i64 %151 to i32
  %153 = call i32 @EVP_CIPHER_CTX_set_num(ptr noundef %150, i32 noundef %152)
  %154 = load ptr, ptr %10, align 8, !tbaa !32
  %155 = getelementptr inbounds nuw %struct.padlock_cipher_data, ptr %154, i32 0, i32 1
  %156 = load i16, ptr %155, align 4
  %157 = lshr i16 %156, 9
  %158 = and i16 %157, 1
  %159 = zext i16 %158 to i32
  %160 = icmp ne i32 %159, 0
  br i1 %160, label %161, label %197

161:                                              ; preds = %140
  %162 = load ptr, ptr %10, align 8, !tbaa !32
  %163 = getelementptr inbounds nuw %struct.padlock_cipher_data, ptr %162, i32 0, i32 1
  %164 = load i16, ptr %163, align 4
  %165 = and i16 %164, -513
  %166 = or i16 %165, 0
  store i16 %166, ptr %163, align 4
  call void @padlock_reload_key()
  %167 = load ptr, ptr %15, align 8, !tbaa !10
  %168 = load ptr, ptr %15, align 8, !tbaa !10
  %169 = load ptr, ptr %10, align 8, !tbaa !32
  call void @padlock_aes_block(ptr noundef %167, ptr noundef %168, ptr noundef %169)
  %170 = load ptr, ptr %10, align 8, !tbaa !32
  %171 = getelementptr inbounds nuw %struct.padlock_cipher_data, ptr %170, i32 0, i32 1
  %172 = load i16, ptr %171, align 4
  %173 = and i16 %172, -513
  %174 = or i16 %173, 512
  store i16 %174, ptr %171, align 4
  call void @padlock_reload_key()
  br label %175

175:                                              ; preds = %178, %161
  %176 = load i64, ptr %9, align 8, !tbaa !3
  %177 = icmp ne i64 %176, 0
  br i1 %177, label %178, label %196

178:                                              ; preds = %175
  call void @llvm.lifetime.start.p0(i64 1, ptr %16) #7
  %179 = load ptr, ptr %8, align 8, !tbaa !10
  %180 = getelementptr inbounds nuw i8, ptr %179, i32 1
  store ptr %180, ptr %8, align 8, !tbaa !10
  %181 = load i8, ptr %179, align 1, !tbaa !42
  store i8 %181, ptr %16, align 1, !tbaa !42
  %182 = load i8, ptr %16, align 1, !tbaa !42
  %183 = zext i8 %182 to i32
  %184 = load ptr, ptr %15, align 8, !tbaa !10
  %185 = load i8, ptr %184, align 1, !tbaa !42
  %186 = zext i8 %185 to i32
  %187 = xor i32 %183, %186
  %188 = trunc i32 %187 to i8
  %189 = load ptr, ptr %7, align 8, !tbaa !10
  %190 = getelementptr inbounds nuw i8, ptr %189, i32 1
  store ptr %190, ptr %7, align 8, !tbaa !10
  store i8 %188, ptr %189, align 1, !tbaa !42
  %191 = load i8, ptr %16, align 1, !tbaa !42
  %192 = load ptr, ptr %15, align 8, !tbaa !10
  %193 = getelementptr inbounds nuw i8, ptr %192, i32 1
  store ptr %193, ptr %15, align 8, !tbaa !10
  store i8 %191, ptr %192, align 1, !tbaa !42
  %194 = load i64, ptr %9, align 8, !tbaa !3
  %195 = add i64 %194, -1
  store i64 %195, ptr %9, align 8, !tbaa !3
  call void @llvm.lifetime.end.p0(i64 1, ptr %16) #7
  br label %175, !llvm.loop !45

196:                                              ; preds = %175
  br label %222

197:                                              ; preds = %140
  call void @padlock_reload_key()
  %198 = load ptr, ptr %15, align 8, !tbaa !10
  %199 = load ptr, ptr %15, align 8, !tbaa !10
  %200 = load ptr, ptr %10, align 8, !tbaa !32
  call void @padlock_aes_block(ptr noundef %198, ptr noundef %199, ptr noundef %200)
  call void @padlock_reload_key()
  br label %201

201:                                              ; preds = %204, %197
  %202 = load i64, ptr %9, align 8, !tbaa !3
  %203 = icmp ne i64 %202, 0
  br i1 %203, label %204, label %221

204:                                              ; preds = %201
  %205 = load ptr, ptr %8, align 8, !tbaa !10
  %206 = getelementptr inbounds nuw i8, ptr %205, i32 1
  store ptr %206, ptr %8, align 8, !tbaa !10
  %207 = load i8, ptr %205, align 1, !tbaa !42
  %208 = zext i8 %207 to i32
  %209 = load ptr, ptr %15, align 8, !tbaa !10
  %210 = load i8, ptr %209, align 1, !tbaa !42
  %211 = zext i8 %210 to i32
  %212 = xor i32 %208, %211
  %213 = trunc i32 %212 to i8
  %214 = load ptr, ptr %7, align 8, !tbaa !10
  %215 = getelementptr inbounds nuw i8, ptr %214, i32 1
  store ptr %215, ptr %7, align 8, !tbaa !10
  store i8 %213, ptr %214, align 1, !tbaa !42
  %216 = load ptr, ptr %15, align 8, !tbaa !10
  store i8 %213, ptr %216, align 1, !tbaa !42
  %217 = load ptr, ptr %15, align 8, !tbaa !10
  %218 = getelementptr inbounds nuw i8, ptr %217, i32 1
  store ptr %218, ptr %15, align 8, !tbaa !10
  %219 = load i64, ptr %9, align 8, !tbaa !3
  %220 = add i64 %219, -1
  store i64 %220, ptr %9, align 8, !tbaa !3
  br label %201, !llvm.loop !46

221:                                              ; preds = %201
  br label %222

222:                                              ; preds = %221, %196
  call void @llvm.lifetime.end.p0(i64 8, ptr %15) #7
  br label %223

223:                                              ; preds = %222, %137
  %224 = load ptr, ptr %6, align 8, !tbaa !30
  %225 = call ptr @EVP_CIPHER_CTX_iv_noconst(ptr noundef %224)
  %226 = load ptr, ptr %10, align 8, !tbaa !32
  %227 = getelementptr inbounds nuw %struct.padlock_cipher_data, ptr %226, i32 0, i32 0
  %228 = getelementptr inbounds [16 x i8], ptr %227, i64 0, i64 0
  call void @llvm.memcpy.p0.p0.i64(ptr align 1 %225, ptr align 4 %228, i64 16, i1 false)
  store i32 1, ptr %5, align 4
  store i32 1, ptr %13, align 4
  br label %229

229:                                              ; preds = %223, %132, %115, %109
  call void @llvm.lifetime.end.p0(i64 8, ptr %11) #7
  call void @llvm.lifetime.end.p0(i64 8, ptr %10) #7
  %230 = load i32, ptr %5, align 4
  ret i32 %230
}