; Function Attrs: nounwind uwtable
define internal range(i32 0, 2) i32 @padlock_cfb_cipher(ptr noundef %0, ptr noundef %1, ptr noundef %2, i64 noundef %3) #1 {
  %5 = tail call ptr @EVP_CIPHER_CTX_get_cipher_data(ptr noundef %0) #10
  %6 = tail call ptr @EVP_CIPHER_CTX_get_cipher_data(ptr noundef %0) #10
  %7 = ptrtoint ptr %6 to i64
  %8 = sub i64 0, %7
  %9 = and i64 %8, 15
  %10 = getelementptr inbounds nuw i8, ptr %5, i64 %9
  %11 = tail call i32 @EVP_CIPHER_CTX_get_num(ptr noundef %0) #10
  %12 = sext i32 %11 to i64
  %.not = icmp eq i32 %11, 0
  br i1 %.not, label %43, label %13

13:                                               ; preds = %4
  %14 = tail call ptr @EVP_CIPHER_CTX_iv_noconst(ptr noundef %0) #10
  %15 = icmp ult i32 %11, 16
  br i1 %15, label %16, label %.thread

16:                                               ; preds = %13
  %17 = tail call i32 @EVP_CIPHER_CTX_is_encrypting(ptr noundef %0) #10
  %.not97 = icmp eq i32 %17, 0
  %.not140 = icmp eq i64 %3, 0
  br i1 %.not97, label %.preheader, label %.preheader113

.preheader113:                                    ; preds = %16
  br i1 %.not140, label %.loopexit112, label %.lr.ph

.preheader:                                       ; preds = %16
  br i1 %.not140, label %.loopexit112, label %.lr.ph126

.lr.ph:                                           ; preds = %.preheader113, %.lr.ph
  %.2118 = phi ptr [ %23, %.lr.ph ], [ %1, %.preheader113 ]
  %.281117 = phi ptr [ %18, %.lr.ph ], [ %2, %.preheader113 ]
  %.086116 = phi i64 [ %24, %.lr.ph ], [ %12, %.preheader113 ]
  %.291115 = phi i64 [ %25, %.lr.ph ], [ %3, %.preheader113 ]
  %18 = getelementptr inbounds nuw i8, ptr %.281117, i64 1
  %19 = load i8, ptr %.281117, align 1, !tbaa !24
  %20 = getelementptr inbounds nuw i8, ptr %14, i64 %.086116
  %21 = load i8, ptr %20, align 1, !tbaa !24
  %22 = xor i8 %21, %19
  %23 = getelementptr inbounds nuw i8, ptr %.2118, i64 1
  store i8 %22, ptr %.2118, align 1, !tbaa !24
  store i8 %22, ptr %20, align 1, !tbaa !24
  %24 = add nuw nsw i64 %.086116, 1
  %25 = add i64 %.291115, -1
  %26 = icmp ult i64 %.086116, 15
  %27 = icmp ne i64 %25, 0
  %28 = select i1 %26, i1 %27, i1 false
  br i1 %28, label %.lr.ph, label %.loopexit112, !llvm.loop !25

.lr.ph126:                                        ; preds = %.preheader, %.lr.ph126
  %.4125 = phi ptr [ %34, %.lr.ph126 ], [ %1, %.preheader ]
  %.483124 = phi ptr [ %29, %.lr.ph126 ], [ %2, %.preheader ]
  %.288123 = phi i64 [ %35, %.lr.ph126 ], [ %12, %.preheader ]
  %.493122 = phi i64 [ %36, %.lr.ph126 ], [ %3, %.preheader ]
  %29 = getelementptr inbounds nuw i8, ptr %.483124, i64 1
  %30 = load i8, ptr %.483124, align 1, !tbaa !24
  %31 = getelementptr inbounds nuw i8, ptr %14, i64 %.288123
  %32 = load i8, ptr %31, align 1, !tbaa !24
  %33 = xor i8 %32, %30
  %34 = getelementptr inbounds nuw i8, ptr %.4125, i64 1
  store i8 %33, ptr %.4125, align 1, !tbaa !24
  %35 = add nuw nsw i64 %.288123, 1
  store i8 %30, ptr %31, align 1, !tbaa !24
  %36 = add i64 %.493122, -1
  %37 = icmp ult i64 %.288123, 15
  %38 = icmp ne i64 %36, 0
  %39 = select i1 %37, i1 %38, i1 false
  br i1 %39, label %.lr.ph126, label %.loopexit112, !llvm.loop !26

.loopexit112:                                     ; preds = %.lr.ph, %.lr.ph126, %.preheader113, %.preheader
  %.392 = phi i64 [ 0, %.preheader ], [ 0, %.preheader113 ], [ %36, %.lr.ph126 ], [ %25, %.lr.ph ]
  %.187 = phi i64 [ %12, %.preheader ], [ %12, %.preheader113 ], [ %35, %.lr.ph126 ], [ %24, %.lr.ph ]
  %.382 = phi ptr [ %2, %.preheader ], [ %2, %.preheader113 ], [ %29, %.lr.ph126 ], [ %18, %.lr.ph ]
  %.3 = phi ptr [ %1, %.preheader ], [ %1, %.preheader113 ], [ %34, %.lr.ph126 ], [ %23, %.lr.ph ]
  %40 = trunc i64 %.187 to i32
  %41 = and i32 %40, 15
  %42 = tail call i32 @EVP_CIPHER_CTX_set_num(ptr noundef %0, i32 noundef %41) #10
  br label %43

43:                                               ; preds = %.loopexit112, %4
  %.089 = phi i64 [ %.392, %.loopexit112 ], [ %3, %4 ]
  %.079 = phi ptr [ %.382, %.loopexit112 ], [ %2, %4 ]
  %.076 = phi ptr [ %.3, %.loopexit112 ], [ %1, %4 ]
  %44 = icmp eq i64 %.089, 0
  br i1 %44, label %.thread, label %45

45:                                               ; preds = %43
  %46 = tail call ptr @EVP_CIPHER_CTX_iv(ptr noundef %0) #10
  tail call void @llvm.memcpy.p0.p0.i64(ptr noundef nonnull align 4 dereferenceable(16) %10, ptr noundef nonnull align 1 dereferenceable(16) %46, i64 16, i1 false)
  %47 = and i64 %.089, -16
  %.not98 = icmp eq i64 %47, 0
  br i1 %.not98, label %.thread107, label %48

48:                                               ; preds = %45
  %49 = tail call i32 @padlock_cfb_encrypt(ptr noundef %.076, ptr noundef %.079, ptr noundef nonnull %10, i64 noundef %47) #10
  %.not99 = icmp eq i32 %49, 0
  br i1 %.not99, label %.thread, label %50

50:                                               ; preds = %48
  %51 = and i64 %.089, 15
  %.not100 = icmp eq i64 %51, 0
  br i1 %.not100, label %.loopexit, label %.thread107

.thread107:                                       ; preds = %45, %50
  %.594110 = phi i64 [ %51, %50 ], [ %.089, %45 ]
  %52 = getelementptr inbounds nuw i8, ptr %.076, i64 %47
  %53 = getelementptr inbounds nuw i8, ptr %.079, i64 %47
  %54 = trunc i64 %.594110 to i32
  %55 = tail call i32 @EVP_CIPHER_CTX_set_num(ptr noundef %0, i32 noundef %54) #10
  %56 = getelementptr inbounds nuw i8, ptr %10, i64 16
  %57 = load i16, ptr %56, align 4
  %58 = and i16 %57, 512
  %.not101 = icmp eq i16 %58, 0
  br i1 %.not101, label %71, label %59

59:                                               ; preds = %.thread107
  %60 = and i16 %57, -513
  store i16 %60, ptr %56, align 4
  tail call void @padlock_reload_key() #10
  tail call void @padlock_aes_block(ptr noundef nonnull %10, ptr noundef nonnull %10, ptr noundef nonnull %10) #10
  %61 = load i16, ptr %56, align 4
  %62 = or i16 %61, 512
  store i16 %62, ptr %56, align 4
  tail call void @padlock_reload_key() #10
  br label %63

63:                                               ; preds = %59, %63
  %.074134 = phi ptr [ %10, %59 ], [ %69, %63 ]
  %.5133 = phi ptr [ %52, %59 ], [ %68, %63 ]
  %.584132 = phi ptr [ %53, %59 ], [ %64, %63 ]
  %.695131 = phi i64 [ %.594110, %59 ], [ %70, %63 ]
  %64 = getelementptr inbounds nuw i8, ptr %.584132, i64 1
  %65 = load i8, ptr %.584132, align 1, !tbaa !24
  %66 = load i8, ptr %.074134, align 1, !tbaa !24
  %67 = xor i8 %66, %65
  %68 = getelementptr inbounds nuw i8, ptr %.5133, i64 1
  store i8 %67, ptr %.5133, align 1, !tbaa !24
  %69 = getelementptr inbounds nuw i8, ptr %.074134, i64 1
  store i8 %65, ptr %.074134, align 1, !tbaa !24
  %70 = add i64 %.695131, -1
  %.not103 = icmp eq i64 %70, 0
  br i1 %.not103, label %.loopexit, label %63, !llvm.loop !27

71:                                               ; preds = %.thread107
  tail call void @padlock_reload_key() #10
  tail call void @padlock_aes_block(ptr noundef nonnull %10, ptr noundef nonnull %10, ptr noundef nonnull %10) #10
  tail call void @padlock_reload_key() #10
  br label %72

72:                                               ; preds = %71, %72
  %.175138 = phi ptr [ %10, %71 ], [ %78, %72 ]
  %.6137 = phi ptr [ %52, %71 ], [ %77, %72 ]
  %.685136 = phi ptr [ %53, %71 ], [ %73, %72 ]
  %.7135 = phi i64 [ %.594110, %71 ], [ %79, %72 ]
  %73 = getelementptr inbounds nuw i8, ptr %.685136, i64 1
  %74 = load i8, ptr %.685136, align 1, !tbaa !24
  %75 = load i8, ptr %.175138, align 1, !tbaa !24
  %76 = xor i8 %75, %74
  %77 = getelementptr inbounds nuw i8, ptr %.6137, i64 1
  store i8 %76, ptr %.6137, align 1, !tbaa !24
  store i8 %76, ptr %.175138, align 1, !tbaa !24
  %78 = getelementptr inbounds nuw i8, ptr %.175138, i64 1
  %79 = add i64 %.7135, -1
  %.not102 = icmp eq i64 %79, 0
  br i1 %.not102, label %.loopexit, label %72, !llvm.loop !28

.loopexit:                                        ; preds = %63, %72, %50
  %80 = tail call ptr @EVP_CIPHER_CTX_iv_noconst(ptr noundef %0) #10
  tail call void @llvm.memcpy.p0.p0.i64(ptr noundef nonnull align 1 dereferenceable(16) %80, ptr noundef nonnull align 4 dereferenceable(16) %10, i64 16, i1 false)
  br label %.thread

.thread:                                          ; preds = %13, %48, %43, %.loopexit
  %.1 = phi i32 [ 1, %.loopexit ], [ 1, %43 ], [ 0, %48 ], [ 0, %13 ]
  ret i32 %.1
}